; Function Attrs: nofree norecurse nosync nounwind memory(read, inaccessiblemem: none) uwtable
define hidden zeroext i1 @lexbor_str_data_cmp(ptr nocapture noundef readonly %0, ptr nocapture noundef readonly %1) local_unnamed_addr #7 {
  %3 = load i8, ptr %0, align 1
  %4 = load i8, ptr %1, align 1
  %.not10 = icmp eq i8 %3, %4
  %5 = icmp ne i8 %3, 0
  %or.cond.not11 = and i1 %5, %.not10
  br i1 %or.cond.not11, label %.lr.ph, label %._crit_edge

.lr.ph:                                           ; preds = %2, %.lr.ph
  %.013 = phi ptr [ %7, %.lr.ph ], [ %1, %2 ]
  %.0612 = phi ptr [ %6, %.lr.ph ], [ %0, %2 ]
  %6 = getelementptr inbounds i8, ptr %.0612, i64 1
  %7 = getelementptr inbounds i8, ptr %.013, i64 1
  %8 = load i8, ptr %6, align 1
  %9 = load i8, ptr %7, align 1
  %.not = icmp eq i8 %8, %9
  %10 = icmp ne i8 %8, 0
  %or.cond.not = and i1 %10, %.not
  br i1 %or.cond.not, label %.lr.ph, label %._crit_edge

._crit_edge:                                      ; preds = %.lr.ph, %2
  %.not.lcssa = phi i1 [ %.not10, %2 ], [ %.not, %.lr.ph ]
  ret i1 %.not.lcssa
}